target datalayout = "e-m:e-p270:32:32-p271:32:32-p272:64:64-i64:64-i128:128-f80:128-n8:16:32:64-S128"
target triple = "x86_64-pc-linux-gnu"

%struct._zval_struct = type { %union._zend_value, %union.anon, %union.anon.3 }
%union._zend_value = type { i64 }
%union.anon = type { i32 }
%union.anon.3 = type { i32 }
%struct._zend_refcounted_h = type { i32, %union.anon.4 }
%union.anon.4 = type { i32 }
%struct._zend_string = type { %struct._zend_refcounted_h, i64, i64, [1 x i8] }

@zend_empty_string = external global ptr, align 8

; Function Attrs: nounwind uwtable
define internal i32 @fetch_array_elem(ptr noundef %0, ptr noundef %1, ptr noundef %2) #0 {
  %4 = alloca i1, align 1
  %5 = alloca ptr, align 8
  %6 = alloca i64, align 8
  %7 = alloca ptr, align 8
  %8 = alloca ptr, align 8
  %9 = alloca ptr, align 8
  %10 = alloca ptr, align 8
  %11 = alloca ptr, align 8
  %12 = alloca i64, align 8
  %13 = alloca double, align 8
  %14 = alloca i64, align 8
  %15 = alloca i64, align 8
  %16 = alloca double, align 8
  %17 = alloca ptr, align 8
  %18 = alloca i32, align 4
  %19 = alloca ptr, align 8
  %20 = alloca ptr, align 8
  %21 = alloca ptr, align 8
  %22 = alloca i64, align 8
  store ptr %0, ptr %19, align 8
  store ptr %1, ptr %20, align 8
  store ptr %2, ptr %21, align 8
  %23 = load ptr, ptr %21, align 8
  store ptr %23, ptr %17, align 8
  %24 = load ptr, ptr %17, align 8
  %25 = getelementptr inbounds %struct._zval_struct, ptr %24, i32 0, i32 1
  %26 = load i8, ptr %25, align 8
  %27 = zext i8 %26 to i32
  switch i32 %27, label %158 [
    i32 1, label %28
    i32 2, label %35
    i32 3, label %41
    i32 4, label %47
    i32 5, label %56
    i32 6, label %97
  ]

28:                                               ; preds = %3
  %29 = load ptr, ptr %20, align 8
  %30 = getelementptr inbounds %struct._zval_struct, ptr %29, i32 0, i32 0
  %31 = load ptr, ptr %30, align 8
  %32 = load ptr, ptr @zend_empty_string, align 8
  %33 = call ptr @zend_hash_find(ptr noundef %31, ptr noundef %32)
  %34 = load ptr, ptr %19, align 8
  store ptr %33, ptr %34, align 8
  store i32 0, ptr %18, align 4
  br label %159

35:                                               ; preds = %3
  %36 = load ptr, ptr %20, align 8
  %37 = getelementptr inbounds %struct._zval_struct, ptr %36, i32 0, i32 0
  %38 = load ptr, ptr %37, align 8
  %39 = call ptr @zend_hash_index_find(ptr noundef %38, i64 noundef 0)
  %40 = load ptr, ptr %19, align 8
  store ptr %39, ptr %40, align 8
  store i32 0, ptr %18, align 4
  br label %159

41:                                               ; preds = %3
  %42 = load ptr, ptr %20, align 8
  %43 = getelementptr inbounds %struct._zval_struct, ptr %42, i32 0, i32 0
  %44 = load ptr, ptr %43, align 8
  %45 = call ptr @zend_hash_index_find(ptr noundef %44, i64 noundef 1)
  %46 = load ptr, ptr %19, align 8
  store ptr %45, ptr %46, align 8
  store i32 0, ptr %18, align 4
  br label %159

47:                                               ; preds = %3
  %48 = load ptr, ptr %20, align 8
  %49 = getelementptr inbounds %struct._zval_struct, ptr %48, i32 0, i32 0
  %50 = load ptr, ptr %49, align 8
  %51 = load ptr, ptr %21, align 8
  %52 = getelementptr inbounds %struct._zval_struct, ptr %51, i32 0, i32 0
  %53 = load i64, ptr %52, align 8
  %54 = call ptr @zend_hash_index_find(ptr noundef %50, i64 noundef %53)
  %55 = load ptr, ptr %19, align 8
  store ptr %54, ptr %55, align 8
  store i32 0, ptr %18, align 4
  br label %159

56:                                               ; preds = %3
  %57 = load ptr, ptr %21, align 8
  %58 = getelementptr inbounds %struct._zval_struct, ptr %57, i32 0, i32 0
  %59 = load double, ptr %58, align 8
  store double %59, ptr %16, align 8
  %60 = load double, ptr %16, align 8
  %61 = call i1 @llvm.is.fpclass.f64(double %60, i32 504)
  %62 = xor i1 %61, true
  br i1 %62, label %66, label %63

63:                                               ; preds = %56
  %64 = load double, ptr %16, align 8
  %65 = call i1 @llvm.is.fpclass.f64(double %64, i32 3)
  br i1 %65, label %66, label %67

66:                                               ; preds = %63, %56
  store i64 0, ptr %15, align 8
  br label %79

67:                                               ; preds = %63
  %68 = load double, ptr %16, align 8
  %69 = fcmp oge double %68, 0x43E0000000000000
  br i1 %69, label %73, label %70

70:                                               ; preds = %67
  %71 = load double, ptr %16, align 8
  %72 = fcmp olt double %71, 0xC3E0000000000000
  br i1 %72, label %73, label %76

73:                                               ; preds = %70, %67
  %74 = load double, ptr %16, align 8
  %75 = call i64 @zend_dval_to_lval_slow(double noundef %74) #10
  store i64 %75, ptr %15, align 8
  br label %79

76:                                               ; preds = %70
  %77 = load double, ptr %16, align 8
  %78 = fptosi double %77 to i64
  store i64 %78, ptr %15, align 8
  br label %79

79:                                               ; preds = %76, %73, %66
  %80 = load i64, ptr %15, align 8
  store i64 %80, ptr %22, align 8
  %81 = load ptr, ptr %21, align 8
  %82 = getelementptr inbounds %struct._zval_struct, ptr %81, i32 0, i32 0
  %83 = load double, ptr %82, align 8
  %84 = load i64, ptr %22, align 8
  store double %83, ptr %13, align 8
  store i64 %84, ptr %14, align 8
  %85 = load i64, ptr %14, align 8
  %86 = sitofp i64 %85 to double
  %87 = load double, ptr %13, align 8
  %88 = fcmp oeq double %86, %87
  br i1 %88, label %90, label %89

89:                                               ; preds = %79
  store i32 -1, ptr %18, align 4
  br label %159

90:                                               ; preds = %79
  %91 = load ptr, ptr %20, align 8
  %92 = getelementptr inbounds %struct._zval_struct, ptr %91, i32 0, i32 0
  %93 = load ptr, ptr %92, align 8
  %94 = load i64, ptr %22, align 8
  %95 = call ptr @zend_hash_index_find(ptr noundef %93, i64 noundef %94)
  %96 = load ptr, ptr %19, align 8
  store ptr %95, ptr %96, align 8
  store i32 0, ptr %18, align 4
  br label %159

97:                                               ; preds = %3
  %98 = load ptr, ptr %20, align 8
  %99 = getelementptr inbounds %struct._zval_struct, ptr %98, i32 0, i32 0
  %100 = load ptr, ptr %99, align 8
  %101 = load ptr, ptr %21, align 8
  %102 = getelementptr inbounds %struct._zval_struct, ptr %101, i32 0, i32 0
  %103 = load ptr, ptr %102, align 8
  store ptr %100, ptr %10, align 8
  store ptr %103, ptr %11, align 8
  %104 = load ptr, ptr %11, align 8
  %105 = getelementptr inbounds %struct._zend_string, ptr %104, i32 0, i32 3
  %106 = load ptr, ptr %11, align 8
  %107 = getelementptr inbounds %struct._zend_string, ptr %106, i32 0, i32 2
  %108 = load i64, ptr %107, align 8
  store ptr %105, ptr %5, align 8
  store i64 %108, ptr %6, align 8
  store ptr %12, ptr %7, align 8
  %109 = load ptr, ptr %5, align 8
  store ptr %109, ptr %8, align 8
  %110 = load ptr, ptr %8, align 8
  %111 = load i8, ptr %110, align 1
  %112 = sext i8 %111 to i32
  %113 = icmp sgt i32 %112, 57
  br i1 %113, label %114, label %115

114:                                              ; preds = %97
  store i1 false, ptr %4, align 1
  br label %145

115:                                              ; preds = %97
  %116 = load ptr, ptr %8, align 8
  %117 = load i8, ptr %116, align 1
  %118 = sext i8 %117 to i32
  %119 = icmp slt i32 %118, 48
  br i1 %119, label %120, label %140

120:                                              ; preds = %115
  %121 = load ptr, ptr %8, align 8
  %122 = load i8, ptr %121, align 1
  %123 = sext i8 %122 to i32
  %124 = icmp ne i32 %123, 45
  br i1 %124, label %125, label %126

125:                                              ; preds = %120
  store i1 false, ptr %4, align 1
  br label %145

126:                                              ; preds = %120
  %127 = load ptr, ptr %8, align 8
  %128 = getelementptr inbounds i8, ptr %127, i32 1
  store ptr %128, ptr %8, align 8
  %129 = load ptr, ptr %8, align 8
  %130 = load i8, ptr %129, align 1
  %131 = sext i8 %130 to i32
  %132 = icmp sgt i32 %131, 57
  br i1 %132, label %138, label %133

133:                                              ; preds = %126
  %134 = load ptr, ptr %8, align 8
  %135 = load i8, ptr %134, align 1
  %136 = sext i8 %135 to i32
  %137 = icmp slt i32 %136, 48
  br i1 %137, label %138, label %139

138:                                              ; preds = %133, %126
  store i1 false, ptr %4, align 1
  br label %145

139:                                              ; preds = %133
  br label %140

140:                                              ; preds = %139, %115
  %141 = load ptr, ptr %5, align 8
  %142 = load i64, ptr %6, align 8
  %143 = load ptr, ptr %7, align 8
  %144 = call zeroext i1 @_zend_handle_numeric_str_ex(ptr noundef %141, i64 noundef %142, ptr noundef %143) #10
  store i1 %144, ptr %4, align 1
  br label %145

145:                                              ; preds = %140, %138, %125, %114
  %146 = load i1, ptr %4, align 1
  br i1 %146, label %147, label %151

147:                                              ; preds = %145
  %148 = load ptr, ptr %10, align 8
  %149 = load i64, ptr %12, align 8
  %150 = call ptr @zend_hash_index_find(ptr noundef %148, i64 noundef %149) #10
  store ptr %150, ptr %9, align 8
  br label %155

151:                                              ; preds = %145
  %152 = load ptr, ptr %10, align 8
  %153 = load ptr, ptr %11, align 8
  %154 = call ptr @zend_hash_find(ptr noundef %152, ptr noundef %153) #10
  store ptr %154, ptr %9, align 8
  br label %155

155:                                              ; preds = %151, %147
  %156 = load ptr, ptr %9, align 8
  %157 = load ptr, ptr %19, align 8
  store ptr %156, ptr %157, align 8
  store i32 0, ptr %18, align 4
  br label %159

158:                                              ; preds = %3
  store i32 -1, ptr %18, align 4
  br label %159

159:                                              ; preds = %158, %155, %90, %89, %47, %41, %35, %28
  %160 = load i32, ptr %18, align 4
  ret i32 %160
}