; Function Attrs: nounwind uwtable
define internal fastcc noundef i32 @fetch_array_elem(ptr nocapture noundef writeonly %0, ptr nocapture noundef readonly %1, ptr nocapture noundef readonly %2) unnamed_addr #0 {
  %4 = alloca i64, align 8
  %5 = getelementptr inbounds i8, ptr %2, i64 8
  %6 = load i8, ptr %5, align 8
  switch i8 %6, label %59 [
    i8 1, label %7
    i8 2, label %11
    i8 3, label %14
    i8 4, label %17
    i8 5, label %21
    i8 6, label %38
  ]

7:                                                ; preds = %3
  %8 = load ptr, ptr %1, align 8
  %9 = load ptr, ptr @zend_empty_string, align 8
  %10 = tail call ptr @zend_hash_find(ptr noundef %8, ptr noundef %9) #13
  br label %.sink.split

11:                                               ; preds = %3
  %12 = load ptr, ptr %1, align 8
  %13 = tail call ptr @zend_hash_index_find(ptr noundef %12, i64 noundef 0) #13
  br label %.sink.split

14:                                               ; preds = %3
  %15 = load ptr, ptr %1, align 8
  %16 = tail call ptr @zend_hash_index_find(ptr noundef %15, i64 noundef 1) #13
  br label %.sink.split

17:                                               ; preds = %3
  %18 = load ptr, ptr %1, align 8
  %19 = load i64, ptr %2, align 8
  %20 = tail call ptr @zend_hash_index_find(ptr noundef %18, i64 noundef %19) #13
  br label %.sink.split

21:                                               ; preds = %3
  %22 = load double, ptr %2, align 8
  %23 = tail call double @llvm.fabs.f64(double %22)
  %or.cond53 = fcmp ueq double %23, 0x7FF0000000000000
  br i1 %or.cond53, label %31, label %24

24:                                               ; preds = %21
  %25 = fcmp oge double %22, 0x43E0000000000000
  %26 = fcmp olt double %22, 0xC3E0000000000000
  %or.cond = or i1 %25, %26
  br i1 %or.cond, label %27, label %29

27:                                               ; preds = %24
  %28 = tail call i64 @zend_dval_to_lval_slow(double noundef %22) #13
  %.pre = load double, ptr %2, align 8
  br label %31

29:                                               ; preds = %24
  %30 = fptosi double %22 to i64
  br label %31

31:                                               ; preds = %21, %29, %27
  %32 = phi double [ %.pre, %27 ], [ %22, %29 ], [ %22, %21 ]
  %.048 = phi i64 [ %28, %27 ], [ %30, %29 ], [ 0, %21 ]
  %33 = sitofp i64 %.048 to double
  %34 = fcmp oeq double %32, %33
  br i1 %34, label %35, label %59

35:                                               ; preds = %31
  %36 = load ptr, ptr %1, align 8
  %37 = tail call ptr @zend_hash_index_find(ptr noundef %36, i64 noundef %.048) #13
  br label %.sink.split

38:                                               ; preds = %3
  %39 = load ptr, ptr %1, align 8
  %40 = load ptr, ptr %2, align 8
  %41 = getelementptr inbounds i8, ptr %40, i64 24
  %42 = getelementptr inbounds i8, ptr %40, i64 16
  %43 = load i64, ptr %42, align 8
  %44 = load i8, ptr %41, align 1
  %45 = icmp sgt i8 %44, 57
  br i1 %45, label %.critedge, label %46

46:                                               ; preds = %38
  %47 = icmp slt i8 %44, 48
  br i1 %47, label %48, label %53

48:                                               ; preds = %46
  %.not = icmp eq i8 %44, 45
  br i1 %.not, label %49, label %.critedge

49:                                               ; preds = %48
  %50 = getelementptr inbounds i8, ptr %40, i64 25
  %51 = load i8, ptr %50, align 1
  %52 = add i8 %51, -58
  %or.cond54 = icmp ult i8 %52, -10
  br i1 %or.cond54, label %.critedge, label %53

53:                                               ; preds = %49, %46
  %54 = call zeroext i1 @_zend_handle_numeric_str_ex(ptr noundef nonnull %41, i64 noundef %43, ptr noundef nonnull %4) #13
  br i1 %54, label %55, label %.critedge

55:                                               ; preds = %53
  %56 = load i64, ptr %4, align 8
  %57 = call ptr @zend_hash_index_find(ptr noundef %39, i64 noundef %56) #13
  br label %.sink.split

.critedge:                                        ; preds = %38, %48, %49, %53
  %58 = call ptr @zend_hash_find(ptr noundef %39, ptr noundef nonnull %40) #13
  br label %.sink.split

.sink.split:                                      ; preds = %55, %.critedge, %7, %11, %14, %17, %35
  %.047.sink = phi ptr [ %37, %35 ], [ %20, %17 ], [ %16, %14 ], [ %13, %11 ], [ %10, %7 ], [ %57, %55 ], [ %58, %.critedge ]
  store ptr %.047.sink, ptr %0, align 8
  br label %59

59:                                               ; preds = %.sink.split, %3, %31
  %.049 = phi i32 [ -1, %31 ], [ -1, %3 ], [ 0, %.sink.split ]
  ret i32 %.049
}